target datalayout = "e-m:e-p270:32:32-p271:32:32-p272:64:64-i64:64-i128:128-f80:128-n8:16:32:64-S128"
target triple = "x86_64-pc-linux-gnu"

%struct.ident_t = type { i32, i32, i32, i32, ptr }
%"class.LightGBM::Metric" = type { ptr }
%"class.std::vector" = type { %"struct.std::_Vector_base" }
%"struct.std::_Vector_base" = type { %"struct.std::_Vector_base<std::__cxx11::basic_string<char>, std::allocator<std::__cxx11::basic_string<char>>>::_Vector_impl" }
%"struct.std::_Vector_base<std::__cxx11::basic_string<char>, std::allocator<std::__cxx11::basic_string<char>>>::_Vector_impl" = type { %"struct.std::_Vector_base<std::__cxx11::basic_string<char>, std::allocator<std::__cxx11::basic_string<char>>>::_Vector_impl_data" }
%"struct.std::_Vector_base<std::__cxx11::basic_string<char>, std::allocator<std::__cxx11::basic_string<char>>>::_Vector_impl_data" = type { ptr, ptr, ptr }
%"class.LightGBM::KullbackLeiblerDivergence" = type { %"class.LightGBM::Metric", i32, ptr, ptr, double, double, %"class.std::vector" }

@1 = private unnamed_addr constant %struct.ident_t { i32 0, i32 514, i32 0, i32 22, ptr @0 }, align 8
@.gomp_critical_user_.reduction.var = common global [8 x i32] zeroinitializer, align 8
@2 = private unnamed_addr constant %struct.ident_t { i32 0, i32 18, i32 0, i32 22, ptr @0 }, align 8

; Function Attrs: inlinehint mustprogress nounwind uwtable
define internal noundef double @_ZN8LightGBML8XentLossEfd(float noundef %0, double noundef %1) #5 {
  %3 = alloca float, align 4
  %4 = alloca double, align 8
  %5 = alloca double, align 8
  %6 = alloca double, align 8
  %7 = alloca double, align 8
  store float %0, ptr %3, align 4, !tbaa !130
  store double %1, ptr %4, align 8, !tbaa !138
  call void @llvm.lifetime.start.p0(i64 8, ptr %5) #3
  store double 0x3D719799812DEA11, ptr %5, align 8, !tbaa !138
  call void @llvm.lifetime.start.p0(i64 8, ptr %6) #3
  %8 = load float, ptr %3, align 4, !tbaa !130
  %9 = fpext float %8 to double
  store double %9, ptr %6, align 8, !tbaa !138
  %10 = load double, ptr %4, align 8, !tbaa !138
  %11 = fcmp ogt double %10, 0x3D719799812DEA11
  br i1 %11, label %12, label %17

12:                                               ; preds = %2
  %13 = load double, ptr %4, align 8, !tbaa !138
  %14 = call double @log(double noundef %13) #3, !tbaa !124
  %15 = load double, ptr %6, align 8, !tbaa !138
  %16 = fmul double %15, %14
  store double %16, ptr %6, align 8, !tbaa !138
  br label %21

17:                                               ; preds = %2
  %18 = call double @log(double noundef 0x3D719799812DEA11) #3, !tbaa !124
  %19 = load double, ptr %6, align 8, !tbaa !138
  %20 = fmul double %19, %18
  store double %20, ptr %6, align 8, !tbaa !138
  br label %21

21:                                               ; preds = %17, %12
  call void @llvm.lifetime.start.p0(i64 8, ptr %7) #3
  %22 = load float, ptr %3, align 4, !tbaa !130
  %23 = fsub float 1.000000e+00, %22
  %24 = fpext float %23 to double
  store double %24, ptr %7, align 8, !tbaa !138
  %25 = load double, ptr %4, align 8, !tbaa !138
  %26 = fsub double 1.000000e+00, %25
  %27 = fcmp ogt double %26, 0x3D719799812DEA11
  br i1 %27, label %28, label %34

28:                                               ; preds = %21
  %29 = load double, ptr %4, align 8, !tbaa !138
  %30 = fsub double 1.000000e+00, %29
  %31 = call double @log(double noundef %30) #3, !tbaa !124
  %32 = load double, ptr %7, align 8, !tbaa !138
  %33 = fmul double %32, %31
  store double %33, ptr %7, align 8, !tbaa !138
  br label %38

34:                                               ; preds = %21
  %35 = call double @log(double noundef 0x3D719799812DEA11) #3, !tbaa !124
  %36 = load double, ptr %7, align 8, !tbaa !138
  %37 = fmul double %36, %35
  store double %37, ptr %7, align 8, !tbaa !138
  br label %38

38:                                               ; preds = %34, %28
  %39 = load double, ptr %6, align 8, !tbaa !138
  %40 = load double, ptr %7, align 8, !tbaa !138
  %41 = fadd double %39, %40
  %42 = fneg double %41
  call void @llvm.lifetime.end.p0(i64 8, ptr %7) #3
  call void @llvm.lifetime.end.p0(i64 8, ptr %6) #3
  call void @llvm.lifetime.end.p0(i64 8, ptr %5) #3
  ret double %42
}

; Function Attrs: alwaysinline norecurse nounwind uwtable
define internal void @_ZNK8LightGBM25KullbackLeiblerDivergence4EvalEPKdPKNS_17ObjectiveFunctionE.omp_outlined.100(ptr noalias noundef %0, ptr noalias noundef %1, ptr noundef %2, ptr noundef nonnull align 8 dereferenceable(8) %3, ptr noundef nonnull align 8 dereferenceable(8) %4) #17 {
  %6 = alloca ptr, align 8
  %7 = alloca ptr, align 8
  %8 = alloca ptr, align 8
  %9 = alloca ptr, align 8
  %10 = alloca ptr, align 8
  %11 = alloca i32, align 4
  %12 = alloca i32, align 4
  %13 = alloca i32, align 4
  %14 = alloca i32, align 4
  %15 = alloca i32, align 4
  %16 = alloca i32, align 4
  %17 = alloca i32, align 4
  %18 = alloca i32, align 4
  %19 = alloca double, align 8
  %20 = alloca i32, align 4
  %21 = alloca [1 x ptr], align 8
  store ptr %0, ptr %6, align 8, !tbaa !234
  store ptr %1, ptr %7, align 8, !tbaa !234
  store ptr %2, ptr %8, align 8, !tbaa !96
  store ptr %3, ptr %9, align 8, !tbaa !135
  store ptr %4, ptr %10, align 8, !tbaa !222
  %22 = load ptr, ptr %8, align 8, !tbaa !96
  %23 = load ptr, ptr %9, align 8, !tbaa !135
  %24 = load ptr, ptr %10, align 8, !tbaa !222
  call void @llvm.lifetime.start.p0(i64 4, ptr %11) #3
  call void @llvm.lifetime.start.p0(i64 4, ptr %12) #3
  %25 = getelementptr inbounds nuw %"class.LightGBM::KullbackLeiblerDivergence", ptr %22, i32 0, i32 1
  %26 = load i32, ptr %25, align 8, !tbaa !768
  store i32 %26, ptr %12, align 4, !tbaa !124
  call void @llvm.lifetime.start.p0(i64 4, ptr %13) #3
  %27 = load i32, ptr %12, align 4, !tbaa !124
  %28 = sub nsw i32 %27, 0
  %29 = sdiv i32 %28, 1
  %30 = sub nsw i32 %29, 1
  store i32 %30, ptr %13, align 4, !tbaa !124
  call void @llvm.lifetime.start.p0(i64 4, ptr %14) #3
  store i32 0, ptr %14, align 4, !tbaa !124
  call void @llvm.lifetime.end.p0(i64 4, ptr %14) #3
  %31 = load i32, ptr %12, align 4, !tbaa !124
  %32 = icmp slt i32 0, %31
  br i1 %32, label %33, label %97

33:                                               ; preds = %5
  call void @llvm.lifetime.start.p0(i64 4, ptr %15) #3
  store i32 0, ptr %15, align 4, !tbaa !124
  call void @llvm.lifetime.start.p0(i64 4, ptr %16) #3
  %34 = load i32, ptr %13, align 4, !tbaa !124
  store i32 %34, ptr %16, align 4, !tbaa !124
  call void @llvm.lifetime.start.p0(i64 4, ptr %17) #3
  store i32 1, ptr %17, align 4, !tbaa !124
  call void @llvm.lifetime.start.p0(i64 4, ptr %18) #3
  store i32 0, ptr %18, align 4, !tbaa !124
  call void @llvm.lifetime.start.p0(i64 8, ptr %19) #3
  store double 0.000000e+00, ptr %19, align 8, !tbaa !138
  call void @llvm.lifetime.start.p0(i64 4, ptr %20) #3
  %35 = load ptr, ptr %6, align 8
  %36 = load i32, ptr %35, align 4, !tbaa !124
  call void @__kmpc_for_static_init_4(ptr @1, i32 %36, i32 34, ptr %18, ptr %15, ptr %16, ptr %17, i32 1, i32 1)
  %37 = load i32, ptr %16, align 4, !tbaa !124
  %38 = load i32, ptr %13, align 4, !tbaa !124
  %39 = icmp sgt i32 %37, %38
  br i1 %39, label %40, label %42

40:                                               ; preds = %33
  %41 = load i32, ptr %13, align 4, !tbaa !124
  br label %44

42:                                               ; preds = %33
  %43 = load i32, ptr %16, align 4, !tbaa !124
  br label %44

44:                                               ; preds = %42, %40
  %45 = phi i32 [ %41, %40 ], [ %43, %42 ]
  store i32 %45, ptr %16, align 4, !tbaa !124
  %46 = load i32, ptr %15, align 4, !tbaa !124
  store i32 %46, ptr %11, align 4, !tbaa !124
  br label %47

47:                                               ; preds = %78, %44
  %48 = load i32, ptr %11, align 4, !tbaa !124
  %49 = load i32, ptr %16, align 4, !tbaa !124
  %50 = icmp sle i32 %48, %49
  br i1 %50, label %52, label %51

51:                                               ; preds = %47
  br label %81

52:                                               ; preds = %47
  %53 = load i32, ptr %11, align 4, !tbaa !124
  %54 = mul nsw i32 %53, 1
  %55 = add nsw i32 0, %54
  store i32 %55, ptr %20, align 4, !tbaa !124
  %56 = getelementptr inbounds nuw %"class.LightGBM::KullbackLeiblerDivergence", ptr %22, i32 0, i32 2
  %57 = load ptr, ptr %56, align 8, !tbaa !770
  %58 = load i32, ptr %20, align 4, !tbaa !124
  %59 = sext i32 %58 to i64
  %60 = getelementptr inbounds float, ptr %57, i64 %59
  %61 = load float, ptr %60, align 4, !tbaa !130
  %62 = load ptr, ptr %24, align 8, !tbaa !135
  %63 = load i32, ptr %20, align 4, !tbaa !124
  %64 = sext i32 %63 to i64
  %65 = getelementptr inbounds double, ptr %62, i64 %64
  %66 = load double, ptr %65, align 8, !tbaa !138
  %67 = call noundef double @_ZN8LightGBML8XentLossEfd(float noundef %61, double noundef %66)
  %68 = getelementptr inbounds nuw %"class.LightGBM::KullbackLeiblerDivergence", ptr %22, i32 0, i32 3
  %69 = load ptr, ptr %68, align 8, !tbaa !771
  %70 = load i32, ptr %20, align 4, !tbaa !124
  %71 = sext i32 %70 to i64
  %72 = getelementptr inbounds float, ptr %69, i64 %71
  %73 = load float, ptr %72, align 4, !tbaa !130
  %74 = fpext float %73 to double
  %75 = load double, ptr %19, align 8, !tbaa !138
  %76 = call double @llvm.fmuladd.f64(double %67, double %74, double %75)
  store double %76, ptr %19, align 8, !tbaa !138
  br label %77

77:                                               ; preds = %52
  br label %78

78:                                               ; preds = %77
  %79 = load i32, ptr %11, align 4, !tbaa !124
  %80 = add nsw i32 %79, 1
  store i32 %80, ptr %11, align 4, !tbaa !124
  br label %47

81:                                               ; preds = %51
  br label %82

82:                                               ; preds = %81
  %83 = load ptr, ptr %6, align 8
  %84 = load i32, ptr %83, align 4, !tbaa !124
  call void @__kmpc_for_static_fini(ptr @1, i32 %84)
  %85 = getelementptr inbounds [1 x ptr], ptr %21, i64 0, i64 0
  store ptr %19, ptr %85, align 8
  %86 = load ptr, ptr %6, align 8
  %87 = load i32, ptr %86, align 4, !tbaa !124
  %88 = call i32 @__kmpc_reduce_nowait(ptr @2, i32 %87, i32 1, i64 8, ptr %21, ptr @_ZNK8LightGBM25KullbackLeiblerDivergence4EvalEPKdPKNS_17ObjectiveFunctionE.omp_outlined.100.omp.reduction.reduction_func, ptr @.gomp_critical_user_.reduction.var)
  switch i32 %88, label %96 [
    i32 1, label %89
    i32 2, label %93
  ]

89:                                               ; preds = %82
  %90 = load double, ptr %23, align 8, !tbaa !138
  %91 = load double, ptr %19, align 8, !tbaa !138
  %92 = fadd double %90, %91
  store double %92, ptr %23, align 8, !tbaa !138
  call void @__kmpc_end_reduce_nowait(ptr @2, i32 %87, ptr @.gomp_critical_user_.reduction.var)
  br label %96

93:                                               ; preds = %82
  %94 = load double, ptr %19, align 8, !tbaa !138
  %95 = atomicrmw fadd ptr %23, double %94 monotonic, align 8
  br label %96

96:                                               ; preds = %93, %89, %82
  call void @llvm.lifetime.end.p0(i64 4, ptr %20) #3
  call void @llvm.lifetime.end.p0(i64 8, ptr %19) #3
  call void @llvm.lifetime.end.p0(i64 4, ptr %18) #3
  call void @llvm.lifetime.end.p0(i64 4, ptr %17) #3
  call void @llvm.lifetime.end.p0(i64 4, ptr %16) #3
  call void @llvm.lifetime.end.p0(i64 4, ptr %15) #3
  br label %97

97:                                               ; preds = %96, %5
  call void @llvm.lifetime.end.p0(i64 4, ptr %13) #3
  call void @llvm.lifetime.end.p0(i64 4, ptr %12) #3
  call void @llvm.lifetime.end.p0(i64 4, ptr %11) #3
  ret void
}