; Function Attrs: alwaysinline norecurse nounwind uwtable
define internal void @_ZNK8LightGBM25KullbackLeiblerDivergence4EvalEPKdPKNS_17ObjectiveFunctionE.omp_outlined.100(ptr noalias noundef readonly captures(none) %0, ptr noalias readnone captures(none) %1, ptr noundef readonly captures(none) %2, ptr noundef nonnull align 8 captures(none) dereferenceable(8) %3, ptr noundef nonnull readonly align 8 captures(none) dereferenceable(8) %4) #15 {
  %6 = alloca i32, align 4
  %7 = alloca i32, align 4
  %8 = alloca i32, align 4
  %9 = alloca i32, align 4
  %10 = alloca double, align 8
  %11 = alloca [1 x ptr], align 8
  %12 = getelementptr inbounds nuw i8, ptr %2, i64 8
  %13 = load i32, ptr %12, align 8, !tbaa !540
  %14 = icmp sgt i32 %13, 0
  br i1 %14, label %15, label %66

15:                                               ; preds = %5
  %16 = add nsw i32 %13, -1
  call void @llvm.lifetime.start.p0(i64 4, ptr nonnull %6) #16
  store i32 0, ptr %6, align 4, !tbaa !127
  call void @llvm.lifetime.start.p0(i64 4, ptr nonnull %7) #16
  store i32 %16, ptr %7, align 4, !tbaa !127
  call void @llvm.lifetime.start.p0(i64 4, ptr nonnull %8) #16
  store i32 1, ptr %8, align 4, !tbaa !127
  call void @llvm.lifetime.start.p0(i64 4, ptr nonnull %9) #16
  store i32 0, ptr %9, align 4, !tbaa !127
  call void @llvm.lifetime.start.p0(i64 8, ptr nonnull %10) #16
  store double 0.000000e+00, ptr %10, align 8, !tbaa !84
  %17 = load i32, ptr %0, align 4, !tbaa !127
  call void @__kmpc_for_static_init_4(ptr nonnull @1, i32 %17, i32 34, ptr nonnull %9, ptr nonnull %6, ptr nonnull %7, ptr nonnull %8, i32 1, i32 1)
  %18 = load i32, ptr %7, align 4, !tbaa !127
  %19 = call i32 @llvm.smin.i32(i32 %18, i32 %16)
  store i32 %19, ptr %7, align 4, !tbaa !127
  %20 = load i32, ptr %6, align 4, !tbaa !127
  %.not16 = icmp sgt i32 %20, %19
  br i1 %.not16, label %._crit_edge, label %.lr.ph

.lr.ph:                                           ; preds = %15
  %21 = getelementptr inbounds nuw i8, ptr %2, i64 16
  %22 = load ptr, ptr %21, align 8, !tbaa !542
  %23 = load ptr, ptr %4, align 8, !tbaa !81
  %24 = getelementptr inbounds nuw i8, ptr %2, i64 24
  %25 = load ptr, ptr %24, align 8, !tbaa !543
  %26 = sext i32 %20 to i64
  %27 = add nsw i32 %19, 1
  br label %28

28:                                               ; preds = %.lr.ph, %_ZN8LightGBML8XentLossEfd.exit
  %indvars.iv = phi i64 [ %26, %.lr.ph ], [ %indvars.iv.next, %_ZN8LightGBML8XentLossEfd.exit ]
  %29 = phi double [ 0.000000e+00, %.lr.ph ], [ %56, %_ZN8LightGBML8XentLossEfd.exit ]
  %30 = getelementptr inbounds float, ptr %22, i64 %indvars.iv
  %31 = load float, ptr %30, align 4, !tbaa !78
  %32 = getelementptr inbounds double, ptr %23, i64 %indvars.iv
  %33 = load double, ptr %32, align 8, !tbaa !84
  %34 = fpext float %31 to double
  %35 = fcmp ogt double %33, 0x3D719799812DEA11
  br i1 %35, label %36, label %39

36:                                               ; preds = %28
  %37 = call double @llvm.log.f64(double %33), !tbaa !127
  %38 = fmul double %37, %34
  br label %41

39:                                               ; preds = %28
  %40 = fmul double %34, 0xC03BA18A998FFFA0
  br label %41

41:                                               ; preds = %39, %36
  %.012.i = phi double [ %38, %36 ], [ %40, %39 ]
  %42 = fsub float 1.000000e+00, %31
  %43 = fpext float %42 to double
  %44 = fsub double 1.000000e+00, %33
  %45 = fcmp ogt double %44, 0x3D719799812DEA11
  br i1 %45, label %46, label %49

46:                                               ; preds = %41
  %47 = call double @llvm.log.f64(double %44), !tbaa !127
  %48 = fmul double %47, %43
  br label %_ZN8LightGBML8XentLossEfd.exit

49:                                               ; preds = %41
  %50 = fmul double %43, 0xC03BA18A998FFFA0
  br label %_ZN8LightGBML8XentLossEfd.exit

_ZN8LightGBML8XentLossEfd.exit:                   ; preds = %46, %49
  %.0.i = phi double [ %48, %46 ], [ %50, %49 ]
  %51 = fadd double %.012.i, %.0.i
  %52 = fneg double %51
  %53 = getelementptr inbounds float, ptr %25, i64 %indvars.iv
  %54 = load float, ptr %53, align 4, !tbaa !78
  %55 = fpext float %54 to double
  %56 = call double @llvm.fmuladd.f64(double %52, double %55, double %29)
  store double %56, ptr %10, align 8, !tbaa !84
  %indvars.iv.next = add nsw i64 %indvars.iv, 1
  %lftr.wideiv = trunc i64 %indvars.iv.next to i32
  %exitcond.not = icmp eq i32 %27, %lftr.wideiv
  br i1 %exitcond.not, label %._crit_edge, label %28

._crit_edge:                                      ; preds = %_ZN8LightGBML8XentLossEfd.exit, %15
  call void @__kmpc_for_static_fini(ptr nonnull @1, i32 %17)
  store ptr %10, ptr %11, align 8
  %57 = call i32 @__kmpc_reduce_nowait(ptr nonnull @2, i32 %17, i32 1, i64 8, ptr nonnull %11, ptr nonnull @_ZNK8LightGBM25KullbackLeiblerDivergence4EvalEPKdPKNS_17ObjectiveFunctionE.omp_outlined.100.omp.reduction.reduction_func, ptr nonnull @.gomp_critical_user_.reduction.var)
  switch i32 %57, label %65 [
    i32 1, label %58
    i32 2, label %62
  ]

58:                                               ; preds = %._crit_edge
  %59 = load double, ptr %3, align 8, !tbaa !84
  %60 = load double, ptr %10, align 8, !tbaa !84
  %61 = fadd double %59, %60
  store double %61, ptr %3, align 8, !tbaa !84
  call void @__kmpc_end_reduce_nowait(ptr nonnull @2, i32 %17, ptr nonnull @.gomp_critical_user_.reduction.var)
  br label %65

62:                                               ; preds = %._crit_edge
  %63 = load double, ptr %10, align 8, !tbaa !84
  %64 = atomicrmw fadd ptr %3, double %63 monotonic, align 8
  br label %65

65:                                               ; preds = %62, %58, %._crit_edge
  call void @llvm.lifetime.end.p0(i64 8, ptr nonnull %10) #16
  call void @llvm.lifetime.end.p0(i64 4, ptr nonnull %9) #16
  call void @llvm.lifetime.end.p0(i64 4, ptr nonnull %8) #16
  call void @llvm.lifetime.end.p0(i64 4, ptr nonnull %7) #16
  call void @llvm.lifetime.end.p0(i64 4, ptr nonnull %6) #16
  br label %66

66:                                               ; preds = %65, %5
  ret void
}